target datalayout = "e-m:e-p270:32:32-p271:32:32-p272:64:64-i64:64-i128:128-f80:128-n8:16:32:64-S128"
target triple = "x86_64-pc-linux-gnu"

%class.LogTagSet = type { ptr, i64, [5 x i32], [4 x i8], %class.LogOutputList, %class.LogDecorators, ptr }
%class.LogOutputList = type <{ [6 x ptr], i32, [4 x i8] }>
%class.LogDecorators = type { i32 }
%struct.NarrowPtrStruct = type { ptr, i32, i8 }
%class.TimeInstant = type { %class.CompositeCounterRepresentation }
%class.CompositeCounterRepresentation = type { %class.Representation }
%class.Representation = type { %class.PairRep }
%class.PairRep = type { i64, i64 }
%class.ReferenceProcessor = type { %class.ReferenceDiscoverer, ptr, i8, i8, i8, i32, ptr, ptr, i32, i32, ptr, ptr, ptr, ptr, ptr }
%class.ReferenceDiscoverer = type { ptr }
%class.DiscoveredList = type { ptr, i32, i64 }
%class.RefProcPhaseTimeBaseTracker.base = type <{ ptr, %class.TimeInstant, %class.TimeInstant, i32 }>
%class.RefProcMTDegreeAdjuster = type <{ ptr, i32, [4 x i8] }>
%class.RefProcBalanceQueuesTimeTracker = type { %class.RefProcPhaseTimeBaseTracker.base, [4 x i8] }
%class.RefProcTask = type { ptr, ptr, ptr }
%class.RefProcKeepAliveFinalPhaseTask = type { %class.RefProcTask }

@ParallelRefProcEnabled = external global i8, align 1
@UseCompressedOops = external global i8, align 1
@ParallelRefProcBalancingEnabled = external global i8, align 1
@.str.22 = private unnamed_addr constant [71 x i8] c"Skipped KeepAliveFinalRefsPhase of Reference Processing: no references\00", align 1
@.str.23 = private unnamed_addr constant [15 x i8] c"FinalReference\00", align 1
@_ZN16LogTagSetMappingILN6LogTag4typeE49ELS1_126ELS1_0ELS1_0ELS1_0ELS1_0EE7_tagsetE = linkonce_odr hidden global %class.LogTagSet zeroinitializer, comdat, align 8
@_ZN14CompressedOops11_narrow_oopE = external global %struct.NarrowPtrStruct, align 8
@_ZTV11RefProcTask = linkonce_odr hidden unnamed_addr constant { [3 x ptr] } { [3 x ptr] [ptr null, ptr null, ptr @__cxa_pure_virtual] }, comdat, align 8
@_ZTV30RefProcKeepAliveFinalPhaseTask = linkonce_odr hidden unnamed_addr constant { [3 x ptr] } { [3 x ptr] [ptr null, ptr null, ptr @_ZN30RefProcKeepAliveFinalPhaseTask7rp_workEjP17BoolObjectClosureP10OopClosureP29EnqueueDiscoveredFieldClosureP11VoidClosure] }, comdat, align 8
@_ZN23RefProcMTDegreeAdjusterC1EP18ReferenceProcessorNS0_13RefProcPhasesEm = hidden unnamed_addr alias void (ptr, ptr, i32, i64), ptr @_ZN23RefProcMTDegreeAdjusterC2EP18ReferenceProcessorNS0_13RefProcPhasesEm
@_ZN23RefProcMTDegreeAdjusterD1Ev = hidden unnamed_addr alias void (ptr), ptr @_ZN23RefProcMTDegreeAdjusterD2Ev

; Function Attrs: mustprogress nounwind uwtable
define linkonce_odr hidden noundef ptr @_Z11cast_to_oopImEP7oopDescT_(i64 noundef %0) #1 comdat {
  %2 = alloca i64, align 8
  store i64 %0, ptr %2, align 8
  %3 = load i64, ptr %2, align 8
  %4 = inttoptr i64 %3 to ptr
  ret ptr %4
}

; Function Attrs: mustprogress nounwind uwtable
define linkonce_odr hidden noundef i32 @_ZN14CompressedOops5shiftEv() #1 comdat align 2 {
  %1 = load i32, ptr getelementptr inbounds (%struct.NarrowPtrStruct, ptr @_ZN14CompressedOops11_narrow_oopE, i32 0, i32 1), align 8
  ret i32 %1
}

; Function Attrs: mustprogress nounwind uwtable
define linkonce_odr hidden noundef ptr @_ZN14CompressedOops4baseEv() #1 comdat align 2 {
  %1 = load ptr, ptr @_ZN14CompressedOops11_narrow_oopE, align 8
  ret ptr %1
}

; Function Attrs: mustprogress nounwind uwtable
define linkonce_odr hidden noundef ptr @_ZN14CompressedOops10decode_rawE9narrowOop(i32 noundef %0) #1 comdat align 2 {
  %2 = alloca i32, align 4
  store i32 %0, ptr %2, align 4
  %3 = call noundef ptr @_ZN14CompressedOops4baseEv()
  %4 = ptrtoint ptr %3 to i64
  %5 = load i32, ptr %2, align 4
  %6 = zext i32 %5 to i64
  %7 = call noundef i32 @_ZN14CompressedOops5shiftEv()
  %8 = zext i32 %7 to i64
  %9 = shl i64 %6, %8
  %10 = add i64 %4, %9
  %11 = call noundef ptr @_Z11cast_to_oopImEP7oopDescT_(i64 noundef %10)
  ret ptr %11
}

; Function Attrs: mustprogress nounwind uwtable
define linkonce_odr hidden noundef ptr @_ZN14CompressedOops15decode_not_nullE9narrowOop(i32 noundef %0) #1 comdat align 2 {
  %2 = alloca i32, align 4
  %3 = alloca ptr, align 8
  store i32 %0, ptr %2, align 4
  %4 = load i32, ptr %2, align 4
  %5 = call noundef ptr @_ZN14CompressedOops10decode_rawE9narrowOop(i32 noundef %4)
  store ptr %5, ptr %3, align 8
  %6 = load ptr, ptr %3, align 8
  ret ptr %6
}

; Function Attrs: mustprogress nounwind uwtable
define linkonce_odr hidden noundef zeroext i1 @_ZN14CompressedOops7is_nullE9narrowOop(i32 noundef %0) #1 comdat align 2 {
  %2 = alloca i32, align 4
  store i32 %0, ptr %2, align 4
  %3 = load i32, ptr %2, align 4
  %4 = icmp eq i32 %3, 0
  ret i1 %4
}

; Function Attrs: mustprogress nounwind uwtable
define linkonce_odr hidden noundef ptr @_ZN14CompressedOops6decodeE9narrowOop(i32 noundef %0) #1 comdat align 2 {
  %2 = alloca i32, align 4
  store i32 %0, ptr %2, align 4
  %3 = load i32, ptr %2, align 4
  %4 = call noundef zeroext i1 @_ZN14CompressedOops7is_nullE9narrowOop(i32 noundef %3)
  br i1 %4, label %5, label %6

5:                                                ; preds = %1
  br label %9

6:                                                ; preds = %1
  %7 = load i32, ptr %2, align 4
  %8 = call noundef ptr @_ZN14CompressedOops15decode_not_nullE9narrowOop(i32 noundef %7)
  br label %9

9:                                                ; preds = %6, %5
  %10 = phi ptr [ null, %5 ], [ %8, %6 ]
  ret ptr %10
}

; Function Attrs: mustprogress nounwind uwtable
define linkonce_odr hidden noundef ptr @_ZNK14DiscoveredList4headEv(ptr noundef nonnull align 8 dereferenceable(24) %0) #1 comdat align 2 {
  %2 = alloca ptr, align 8
  store ptr %0, ptr %2, align 8
  %3 = load ptr, ptr %2, align 8
  %4 = load i8, ptr @UseCompressedOops, align 1
  %5 = trunc i8 %4 to i1
  br i1 %5, label %6, label %10

6:                                                ; preds = %1
  %7 = getelementptr inbounds %class.DiscoveredList, ptr %3, i32 0, i32 1
  %8 = load i32, ptr %7, align 8
  %9 = call noundef ptr @_ZN14CompressedOops6decodeE9narrowOop(i32 noundef %8)
  br label %13

10:                                               ; preds = %1
  %11 = getelementptr inbounds %class.DiscoveredList, ptr %3, i32 0, i32 0
  %12 = load ptr, ptr %11, align 8
  br label %13

13:                                               ; preds = %10, %6
  %14 = phi ptr [ %9, %6 ], [ %12, %10 ]
  ret ptr %14
}

; Function Attrs: mustprogress nounwind uwtable
define linkonce_odr hidden noundef zeroext i1 @_ZNK14DiscoveredList8is_emptyEv(ptr noundef nonnull align 8 dereferenceable(24) %0) #1 comdat align 2 {
  %2 = alloca ptr, align 8
  store ptr %0, ptr %2, align 8
  %3 = load ptr, ptr %2, align 8
  %4 = call noundef ptr @_ZNK14DiscoveredList4headEv(ptr noundef nonnull align 8 dereferenceable(24) %3)
  %5 = icmp eq ptr %4, null
  ret i1 %5
}

; Function Attrs: mustprogress nounwind uwtable
define linkonce_odr hidden noundef zeroext i1 @_ZNK13LogOutputList8is_levelEN8LogLevel4typeE(ptr noundef nonnull align 8 dereferenceable(52) %0, i32 noundef %1) #1 comdat align 2 {
  %3 = alloca ptr, align 8
  %4 = alloca i32, align 4
  store ptr %0, ptr %3, align 8
  store i32 %1, ptr %4, align 4
  %5 = load ptr, ptr %3, align 8
  %6 = getelementptr inbounds %class.LogOutputList, ptr %5, i32 0, i32 0
  %7 = load i32, ptr %4, align 4
  %8 = zext i32 %7 to i64
  %9 = getelementptr inbounds [6 x ptr], ptr %6, i64 0, i64 %8
  %10 = load volatile ptr, ptr %9, align 8
  %11 = icmp ne ptr %10, null
  ret i1 %11
}

; Function Attrs: mustprogress nounwind uwtable
define linkonce_odr hidden void @_ZN11RefProcTaskC2ER18ReferenceProcessorP28ReferenceProcessorPhaseTimes(ptr noundef nonnull align 8 dereferenceable(24) %0, ptr noundef nonnull align 8 dereferenceable(88) %1, ptr noundef %2) unnamed_addr #1 comdat align 2 {
  %4 = alloca ptr, align 8
  %5 = alloca ptr, align 8
  %6 = alloca ptr, align 8
  store ptr %0, ptr %4, align 8
  store ptr %1, ptr %5, align 8
  store ptr %2, ptr %6, align 8
  %7 = load ptr, ptr %4, align 8
  store ptr getelementptr inbounds inrange(-16, 8) ({ [3 x ptr] }, ptr @_ZTV11RefProcTask, i32 0, i32 0, i32 2), ptr %7, align 8
  %8 = getelementptr inbounds %class.RefProcTask, ptr %7, i32 0, i32 1
  %9 = load ptr, ptr %5, align 8
  store ptr %9, ptr %8, align 8
  %10 = getelementptr inbounds %class.RefProcTask, ptr %7, i32 0, i32 2
  %11 = load ptr, ptr %6, align 8
  store ptr %11, ptr %10, align 8
  ret void
}

; Function Attrs: mustprogress nounwind uwtable
define hidden noundef zeroext i1 @_ZN18ReferenceProcessor19need_balance_queuesEP14DiscoveredList(ptr noundef nonnull align 8 dereferenceable(88) %0, ptr noundef %1) #1 align 2 {
  %3 = alloca i1, align 1
  %4 = alloca ptr, align 8
  %5 = alloca ptr, align 8
  %6 = alloca i32, align 4
  store ptr %0, ptr %4, align 8
  store ptr %1, ptr %5, align 8
  %7 = load ptr, ptr %4, align 8
  %8 = load i8, ptr @ParallelRefProcBalancingEnabled, align 1
  %9 = trunc i8 %8 to i1
  br i1 %9, label %10, label %11

10:                                               ; preds = %2
  store i1 true, ptr %3, align 1
  br label %31

11:                                               ; preds = %2
  %12 = getelementptr inbounds %class.ReferenceProcessor, ptr %7, i32 0, i32 8
  %13 = load i32, ptr %12, align 8
  store i32 %13, ptr %6, align 4
  br label %14

14:                                               ; preds = %27, %11
  %15 = load i32, ptr %6, align 4
  %16 = getelementptr inbounds %class.ReferenceProcessor, ptr %7, i32 0, i32 9
  %17 = load i32, ptr %16, align 4
  %18 = icmp ult i32 %15, %17
  br i1 %18, label %19, label %30

19:                                               ; preds = %14
  %20 = load ptr, ptr %5, align 8
  %21 = load i32, ptr %6, align 4
  %22 = zext i32 %21 to i64
  %23 = getelementptr inbounds %class.DiscoveredList, ptr %20, i64 %22
  %24 = call noundef zeroext i1 @_ZNK14DiscoveredList8is_emptyEv(ptr noundef nonnull align 8 dereferenceable(24) %23)
  br i1 %24, label %26, label %25

25:                                               ; preds = %19
  store i1 true, ptr %3, align 1
  br label %31

26:                                               ; preds = %19
  br label %27

27:                                               ; preds = %26
  %28 = load i32, ptr %6, align 4
  %29 = add i32 %28, 1
  store i32 %29, ptr %6, align 4
  br label %14, !llvm.loop !15

30:                                               ; preds = %14
  store i1 false, ptr %3, align 1
  br label %31

31:                                               ; preds = %30, %25, %10
  %32 = load i1, ptr %3, align 1
  ret i1 %32
}

; Function Attrs: mustprogress nounwind uwtable
define linkonce_odr hidden noundef zeroext i1 @_ZNK9LogTagSet8is_levelEN8LogLevel4typeE(ptr noundef nonnull align 8 dereferenceable(112) %0, i32 noundef %1) #1 comdat align 2 {
  %3 = alloca ptr, align 8
  %4 = alloca i32, align 4
  store ptr %0, ptr %3, align 8
  store i32 %1, ptr %4, align 4
  %5 = load ptr, ptr %3, align 8
  %6 = getelementptr inbounds %class.LogTagSet, ptr %5, i32 0, i32 4
  %7 = load i32, ptr %4, align 4
  %8 = call noundef zeroext i1 @_ZNK13LogOutputList8is_levelEN8LogLevel4typeE(ptr noundef nonnull align 8 dereferenceable(52) %6, i32 noundef %7)
  ret i1 %8
}

; Function Attrs: mustprogress nounwind uwtable
define linkonce_odr hidden noundef nonnull align 8 dereferenceable(112) ptr @_ZN16LogTagSetMappingILN6LogTag4typeE49ELS1_126ELS1_0ELS1_0ELS1_0ELS1_0EE6tagsetEv() #1 comdat align 2 {
  ret ptr @_ZN16LogTagSetMappingILN6LogTag4typeE49ELS1_126ELS1_0ELS1_0ELS1_0ELS1_0EE7_tagsetE
}

; Function Attrs: mustprogress nounwind uwtable
define linkonce_odr hidden void @_ZN18ReferenceProcessor23verify_total_count_zeroEP14DiscoveredListPKc(ptr noundef nonnull align 8 dereferenceable(88) %0, ptr noundef %1, ptr noundef %2) #1 comdat align 2 {
  %4 = alloca ptr, align 8
  %5 = alloca ptr, align 8
  %6 = alloca ptr, align 8
  store ptr %0, ptr %4, align 8
  store ptr %1, ptr %5, align 8
  store ptr %2, ptr %6, align 8
  ret void
}

; Function Attrs: mustprogress nounwind uwtable
define linkonce_odr hidden void @_ZN30RefProcKeepAliveFinalPhaseTaskC2ER18ReferenceProcessorP28ReferenceProcessorPhaseTimes(ptr noundef nonnull align 8 dereferenceable(24) %0, ptr noundef nonnull align 8 dereferenceable(88) %1, ptr noundef %2) unnamed_addr #1 comdat align 2 {
  %4 = alloca ptr, align 8
  %5 = alloca ptr, align 8
  %6 = alloca ptr, align 8
  store ptr %0, ptr %4, align 8
  store ptr %1, ptr %5, align 8
  store ptr %2, ptr %6, align 8
  %7 = load ptr, ptr %4, align 8
  %8 = load ptr, ptr %5, align 8
  %9 = load ptr, ptr %6, align 8
  call void @_ZN11RefProcTaskC2ER18ReferenceProcessorP28ReferenceProcessorPhaseTimes(ptr noundef nonnull align 8 dereferenceable(24) %7, ptr noundef nonnull align 8 dereferenceable(88) %8, ptr noundef %9)
  store ptr getelementptr inbounds inrange(-16, 8) ({ [3 x ptr] }, ptr @_ZTV30RefProcKeepAliveFinalPhaseTask, i32 0, i32 0, i32 2), ptr %7, align 8
  ret void
}

; Function Attrs: mustprogress nounwind uwtable
define hidden void @_ZN18ReferenceProcessor20maybe_balance_queuesEP14DiscoveredList(ptr noundef nonnull align 8 dereferenceable(88) %0, ptr noundef %1) #1 align 2 {
  %3 = alloca ptr, align 8
  %4 = alloca ptr, align 8
  store ptr %0, ptr %3, align 8
  store ptr %1, ptr %4, align 8
  %5 = load ptr, ptr %3, align 8
  %6 = load ptr, ptr %4, align 8
  %7 = call noundef zeroext i1 @_ZN18ReferenceProcessor19need_balance_queuesEP14DiscoveredList(ptr noundef nonnull align 8 dereferenceable(88) %5, ptr noundef %6)
  br i1 %7, label %8, label %10

8:                                                ; preds = %2
  %9 = load ptr, ptr %4, align 8
  call void @_ZN18ReferenceProcessor14balance_queuesEP14DiscoveredList(ptr noundef nonnull align 8 dereferenceable(88) %5, ptr noundef %9)
  br label %10

10:                                               ; preds = %8, %2
  ret void
}

; Function Attrs: mustprogress nounwind uwtable
define hidden noundef zeroext i1 @_ZNK18ReferenceProcessor16processing_is_mtEv(ptr noundef nonnull align 8 dereferenceable(88) %0) #1 align 2 {
  %2 = alloca ptr, align 8
  store ptr %0, ptr %2, align 8
  %3 = load ptr, ptr %2, align 8
  %4 = load i8, ptr @ParallelRefProcEnabled, align 1
  %5 = trunc i8 %4 to i1
  br i1 %5, label %6, label %10

6:                                                ; preds = %1
  %7 = getelementptr inbounds %class.ReferenceProcessor, ptr %3, i32 0, i32 8
  %8 = load i32, ptr %7, align 8
  %9 = icmp ugt i32 %8, 1
  br label %10

10:                                               ; preds = %6, %1
  %11 = phi i1 [ false, %1 ], [ %9, %6 ]
  ret i1 %11
}

; Function Attrs: mustprogress nounwind uwtable
define linkonce_odr hidden noundef zeroext i1 @_ZN7LogImplILN6LogTag4typeE49ELS1_126ELS1_0ELS1_0ELS1_0ELS1_0EE8is_levelEN8LogLevel4typeE(i32 noundef %0) #1 comdat align 2 {
  %2 = alloca i32, align 4
  store i32 %0, ptr %2, align 4
  %3 = call noundef nonnull align 8 dereferenceable(112) ptr @_ZN16LogTagSetMappingILN6LogTag4typeE49ELS1_126ELS1_0ELS1_0ELS1_0ELS1_0EE6tagsetEv()
  %4 = load i32, ptr %2, align 4
  %5 = call noundef zeroext i1 @_ZNK9LogTagSet8is_levelEN8LogLevel4typeE(ptr noundef nonnull align 8 dereferenceable(112) %3, i32 noundef %4)
  ret i1 %5
}

; Function Attrs: mustprogress nounwind uwtable
define hidden void @_ZN18ReferenceProcessor24process_final_keep_aliveER16RefProcProxyTaskR28ReferenceProcessorPhaseTimes(ptr noundef nonnull align 8 dereferenceable(88) %0, ptr noundef nonnull align 8 dereferenceable(41) %1, ptr noundef nonnull align 8 dereferenceable(184) %2) #1 align 2 {
  %4 = alloca ptr, align 8
  %5 = alloca ptr, align 8
  %6 = alloca ptr, align 8
  %7 = alloca i64, align 8
  %8 = alloca %class.RefProcMTDegreeAdjuster, align 8
  %9 = alloca %class.RefProcBalanceQueuesTimeTracker, align 8
  %10 = alloca %class.RefProcKeepAliveFinalPhaseTask, align 8
  store ptr %0, ptr %4, align 8
  store ptr %1, ptr %5, align 8
  store ptr %2, ptr %6, align 8
  %11 = load ptr, ptr %4, align 8
  %12 = load ptr, ptr %6, align 8
  %13 = call noundef i64 @_ZN28ReferenceProcessorPhaseTimes14ref_discoveredE13ReferenceType(ptr noundef nonnull align 8 dereferenceable(184) %12, i32 noundef 3)
  store i64 %13, ptr %7, align 8
  %14 = load i64, ptr %7, align 8
  %15 = icmp eq i64 %14, 0
  br i1 %15, label %16, label %21

16:                                               ; preds = %3
  %17 = call noundef zeroext i1 @_ZN7LogImplILN6LogTag4typeE49ELS1_126ELS1_0ELS1_0ELS1_0ELS1_0EE8is_levelEN8LogLevel4typeE(i32 noundef 2)
  br i1 %17, label %19, label %18

18:                                               ; preds = %16
  br label %20

19:                                               ; preds = %16
  call void (ptr, ...) @_ZN7LogImplILN6LogTag4typeE49ELS1_126ELS1_0ELS1_0ELS1_0ELS1_0EE5writeILN8LogLevel4typeE2EEEvPKcz(ptr noundef @.str.22)
  br label %20

20:                                               ; preds = %19, %18
  br label %33

21:                                               ; preds = %3
  %22 = load i64, ptr %7, align 8
  call void @_ZN23RefProcMTDegreeAdjusterC1EP18ReferenceProcessorNS0_13RefProcPhasesEm(ptr noundef nonnull align 8 dereferenceable(12) %8, ptr noundef %11, i32 noundef 1, i64 noundef %22)
  %23 = call noundef zeroext i1 @_ZNK18ReferenceProcessor16processing_is_mtEv(ptr noundef nonnull align 8 dereferenceable(88) %11)
  br i1 %23, label %24, label %28

24:                                               ; preds = %21
  %25 = load ptr, ptr %6, align 8
  call void @_ZN31RefProcBalanceQueuesTimeTrackerC1EN18ReferenceProcessor13RefProcPhasesEP28ReferenceProcessorPhaseTimes(ptr noundef nonnull align 8 dereferenceable(44) %9, i32 noundef 1, ptr noundef %25)
  %26 = getelementptr inbounds %class.ReferenceProcessor, ptr %11, i32 0, i32 13
  %27 = load ptr, ptr %26, align 8
  call void @_ZN18ReferenceProcessor20maybe_balance_queuesEP14DiscoveredList(ptr noundef nonnull align 8 dereferenceable(88) %11, ptr noundef %27)
  call void @_ZN31RefProcBalanceQueuesTimeTrackerD1Ev(ptr noundef nonnull align 8 dereferenceable(44) %9) #10
  br label %28

28:                                               ; preds = %24, %21
  %29 = load ptr, ptr %6, align 8
  call void @_ZN30RefProcKeepAliveFinalPhaseTaskC2ER18ReferenceProcessorP28ReferenceProcessorPhaseTimes(ptr noundef nonnull align 8 dereferenceable(24) %10, ptr noundef nonnull align 8 dereferenceable(88) %11, ptr noundef %29)
  %30 = load ptr, ptr %5, align 8
  call void @_ZN18ReferenceProcessor8run_taskER11RefProcTaskR16RefProcProxyTaskb(ptr noundef nonnull align 8 dereferenceable(88) %11, ptr noundef nonnull align 8 dereferenceable(24) %10, ptr noundef nonnull align 8 dereferenceable(41) %30, i1 noundef zeroext true)
  %31 = getelementptr inbounds %class.ReferenceProcessor, ptr %11, i32 0, i32 13
  %32 = load ptr, ptr %31, align 8
  call void @_ZN18ReferenceProcessor23verify_total_count_zeroEP14DiscoveredListPKc(ptr noundef nonnull align 8 dereferenceable(88) %11, ptr noundef %32, ptr noundef @.str.23)
  call void @_ZN23RefProcMTDegreeAdjusterD1Ev(ptr noundef nonnull align 8 dereferenceable(12) %8) #10
  br label %33

33:                                               ; preds = %28, %20
  ret void
}