; Function Attrs: mustprogress nounwind uwtable
define hidden void @_ZN18ReferenceProcessor24process_final_keep_aliveER16RefProcProxyTaskR28ReferenceProcessorPhaseTimes(ptr noundef nonnull align 8 dereferenceable(88) %0, ptr noundef nonnull align 8 dereferenceable(41) %1, ptr noundef nonnull align 8 dereferenceable(184) %2) local_unnamed_addr #0 align 2 {
  %4 = alloca %class.RefProcBalanceQueuesTimeTracker, align 8
  %5 = alloca %class.RefProcKeepAliveFinalPhaseTask, align 8
  %6 = tail call noundef i64 @_ZN28ReferenceProcessorPhaseTimes14ref_discoveredE13ReferenceType(ptr noundef nonnull align 8 dereferenceable(184) %2, i32 noundef 3) #17
  %7 = icmp eq i64 %6, 0
  br i1 %7, label %8, label %11

8:                                                ; preds = %3
  %9 = load volatile ptr, ptr getelementptr inbounds (i8, ptr @_ZN16LogTagSetMappingILN6LogTag4typeE49ELS1_126ELS1_0ELS1_0ELS1_0ELS1_0EE7_tagsetE, i64 56), align 8
  %.not = icmp eq ptr %9, null
  br i1 %.not, label %49, label %10

10:                                               ; preds = %8
  tail call void (ptr, ...) @_ZN7LogImplILN6LogTag4typeE49ELS1_126ELS1_0ELS1_0ELS1_0ELS1_0EE5writeILN8LogLevel4typeE2EEEvPKcz(ptr noundef nonnull @.str.22)
  br label %49

11:                                               ; preds = %3
  %12 = getelementptr inbounds i8, ptr %0, i64 40
  %13 = load i32, ptr %12, align 8
  %14 = getelementptr inbounds i8, ptr %0, i64 20
  store i32 0, ptr %14, align 4
  %15 = load i8, ptr @ParallelRefProcEnabled, align 1
  %16 = trunc i8 %15 to i1
  %17 = icmp ugt i32 %13, 1
  %18 = select i1 %16, i1 %17, i1 false
  br i1 %18, label %19, label %46

19:                                               ; preds = %11
  call void @_ZN31RefProcBalanceQueuesTimeTrackerC1EN18ReferenceProcessor13RefProcPhasesEP28ReferenceProcessorPhaseTimes(ptr noundef nonnull align 8 dereferenceable(44) %4, i32 noundef 1, ptr noundef nonnull %2) #17
  %20 = getelementptr inbounds i8, ptr %0, i64 72
  %21 = load ptr, ptr %20, align 8
  %22 = load i8, ptr @ParallelRefProcBalancingEnabled, align 1
  %23 = trunc i8 %22 to i1
  br i1 %23, label %.loopexit.i, label %24

24:                                               ; preds = %19
  %25 = load i32, ptr %12, align 8
  %26 = getelementptr inbounds i8, ptr %0, i64 44
  %27 = load i32, ptr %26, align 4
  %28 = icmp ult i32 %25, %27
  br i1 %28, label %.lr.ph.i.i, label %_ZN18ReferenceProcessor20maybe_balance_queuesEP14DiscoveredList.exit

.lr.ph.i.i:                                       ; preds = %24
  %29 = load i8, ptr @UseCompressedOops, align 1
  %30 = trunc i8 %29 to i1
  %31 = load i32, ptr getelementptr inbounds (i8, ptr @_ZN14CompressedOops11_narrow_oopE, i64 8), align 8
  %32 = zext nneg i32 %31 to i64
  br i1 %30, label %.lr.ph.split.us.i.i, label %_ZNK14DiscoveredList8is_emptyEv.exit.preheader.i.i

_ZNK14DiscoveredList8is_emptyEv.exit.preheader.i.i: ; preds = %.lr.ph.i.i
  %33 = zext i32 %25 to i64
  %wide.trip.count.i.i = zext i32 %27 to i64
  br label %_ZNK14DiscoveredList8is_emptyEv.exit.i.i

.lr.ph.split.us.i.i:                              ; preds = %.lr.ph.i.i
  %34 = load ptr, ptr @_ZN14CompressedOops11_narrow_oopE, align 8
  %35 = ptrtoint ptr %34 to i64
  %invariant.gep.i.i = getelementptr inbounds i8, ptr %21, i64 8
  %36 = zext i32 %25 to i64
  %37 = sub i64 0, %35
  br label %38

38:                                               ; preds = %_ZNK14DiscoveredList8is_emptyEv.exit.thread.us.i.i, %.lr.ph.split.us.i.i
  %indvars.iv12.i.i = phi i64 [ %indvars.iv.next13.i.i, %_ZNK14DiscoveredList8is_emptyEv.exit.thread.us.i.i ], [ %36, %.lr.ph.split.us.i.i ]
  %gep.i.i = getelementptr inbounds %class.DiscoveredList, ptr %invariant.gep.i.i, i64 %indvars.iv12.i.i
  %39 = load i32, ptr %gep.i.i, align 8
  %40 = icmp ne i32 %39, 0
  %41 = zext i32 %39 to i64
  %42 = shl i64 %41, %32
  %43 = icmp ne i64 %42, %37
  %or.cond.not.i.i = select i1 %40, i1 %43, i1 false
  br i1 %or.cond.not.i.i, label %.loopexit.i, label %_ZNK14DiscoveredList8is_emptyEv.exit.thread.us.i.i

_ZNK14DiscoveredList8is_emptyEv.exit.thread.us.i.i: ; preds = %38
  %indvars.iv.next13.i.i = add nuw nsw i64 %indvars.iv12.i.i, 1
  %lftr.wideiv.i.i = trunc i64 %indvars.iv.next13.i.i to i32
  %exitcond15.not.i.i = icmp eq i32 %27, %lftr.wideiv.i.i
  br i1 %exitcond15.not.i.i, label %_ZN18ReferenceProcessor20maybe_balance_queuesEP14DiscoveredList.exit, label %38, !llvm.loop !10

_ZNK14DiscoveredList8is_emptyEv.exit.i.i:         ; preds = %_ZNK14DiscoveredList8is_emptyEv.exit.thread.i.i, %_ZNK14DiscoveredList8is_emptyEv.exit.preheader.i.i
  %indvars.iv.i.i = phi i64 [ %33, %_ZNK14DiscoveredList8is_emptyEv.exit.preheader.i.i ], [ %indvars.iv.next.i.i, %_ZNK14DiscoveredList8is_emptyEv.exit.thread.i.i ]
  %44 = getelementptr inbounds %class.DiscoveredList, ptr %21, i64 %indvars.iv.i.i
  %45 = load ptr, ptr %44, align 8
  %.not.i.i = icmp eq ptr %45, null
  br i1 %.not.i.i, label %_ZNK14DiscoveredList8is_emptyEv.exit.thread.i.i, label %.loopexit.i

_ZNK14DiscoveredList8is_emptyEv.exit.thread.i.i:  ; preds = %_ZNK14DiscoveredList8is_emptyEv.exit.i.i
  %indvars.iv.next.i.i = add nuw nsw i64 %indvars.iv.i.i, 1
  %exitcond.not.i.i = icmp eq i64 %indvars.iv.next.i.i, %wide.trip.count.i.i
  br i1 %exitcond.not.i.i, label %_ZN18ReferenceProcessor20maybe_balance_queuesEP14DiscoveredList.exit, label %_ZNK14DiscoveredList8is_emptyEv.exit.i.i, !llvm.loop !10

.loopexit.i:                                      ; preds = %_ZNK14DiscoveredList8is_emptyEv.exit.i.i, %38, %19
  call void @_ZN18ReferenceProcessor14balance_queuesEP14DiscoveredList(ptr noundef nonnull readonly align 8 dereferenceable(88) %0, ptr noundef %21)
  br label %_ZN18ReferenceProcessor20maybe_balance_queuesEP14DiscoveredList.exit

_ZN18ReferenceProcessor20maybe_balance_queuesEP14DiscoveredList.exit: ; preds = %_ZNK14DiscoveredList8is_emptyEv.exit.thread.i.i, %_ZNK14DiscoveredList8is_emptyEv.exit.thread.us.i.i, %24, %.loopexit.i
  call void @_ZN31RefProcBalanceQueuesTimeTrackerD1Ev(ptr noundef nonnull align 8 dereferenceable(44) %4) #17
  br label %46

46:                                               ; preds = %_ZN18ReferenceProcessor20maybe_balance_queuesEP14DiscoveredList.exit, %11
  %47 = getelementptr inbounds i8, ptr %5, i64 8
  store ptr %0, ptr %47, align 8
  %48 = getelementptr inbounds i8, ptr %5, i64 16
  store ptr %2, ptr %48, align 8
  store ptr getelementptr inbounds inrange(-16, 8) (i8, ptr @_ZTV30RefProcKeepAliveFinalPhaseTask, i64 16), ptr %5, align 8
  call void @_ZN18ReferenceProcessor8run_taskER11RefProcTaskR16RefProcProxyTaskb(ptr noundef nonnull align 8 dereferenceable(88) %0, ptr noundef nonnull align 8 dereferenceable(24) %5, ptr noundef nonnull align 8 dereferenceable(41) %1, i1 noundef zeroext true)
  store i32 %13, ptr %12, align 8
  store i32 0, ptr %14, align 4
  br label %49

49:                                               ; preds = %10, %8, %46
  ret void
}